******************************************************************************
            TI ARM Clang Linker PC v4.0.4                      
******************************************************************************
>> Linked Fri May 15 17:59:20 2026

OUTPUT FILE NAME:   <emptyred.out>
ENTRY POINT SYMBOL: "_c_int00_noargs"  address: 00005261


MEMORY CONFIGURATION

         name            origin    length      used     unused   attr    fill
----------------------  --------  ---------  --------  --------  ----  --------
  FLASH                 00000000   00020000  00006128  00019ed8  R  X
  SRAM                  20200000   00008000  000004de  00007b22  RW X
  BCR_CONFIG            41c00000   000000ff  00000000  000000ff  R   
  BSL_CONFIG            41c00100   00000080  00000000  00000080  R   


SEGMENT ALLOCATION MAP

run origin  load origin   length   init length attrs members
----------  ----------- ---------- ----------- ----- -------
00000000    00000000    000054b8   000054b8    r-x
  00000000    00000000    000000c0   000000c0    r-- .intvecs
  000000c0    000000c0    000053f8   000053f8    r-x .text
000054c0    000054c0    00000c70   00000c70    r--
  000054c0    000054c0    00000bb0   00000bb0    r-- .rodata
  00006070    00006070    000000c0   000000c0    r-- .cinit
20200000    20200000    000002e1   00000000    rw-
  20200000    20200000    00000195   00000000    rw- .bss
  20200198    20200198    00000149   00000000    rw- .data
20207e00    20207e00    00000200   00000000    rw-
  20207e00    20207e00    00000200   00000000    rw- .stack


SECTION ALLOCATION MAP

 output                                  attributes/
section   page    origin      length       input sections
--------  ----  ----------  ----------   ----------------
.intvecs   0    00000000    000000c0     
                  00000000    000000c0     startup_mspm0g350x_ticlang.o (.intvecs)

.text      0    000000c0    000053f8     
                  000000c0    00000e6c     ST7735.o (.text.tft180_init)
                  00000f2c    000009d0     libc.a : _printfi.c.obj (.text:__TI_printfi)
                  000018fc    000005e8     empty.o (.text.main)
                  00001ee4    0000052c     pid_control.o (.text.PID_Update)
                  00002410    000002c8     ST7735.o (.text.tft180_show_char)
                  000026d8    0000024c     pid_control.o (.text.PID_SetTargetIndex)
                  00002924    00000220     libc.a : _printfi.c.obj (.text._pconv_a)
                  00002b44    00000204     pid_control.o (.text.Generate_Waypoints)
                  00002d48    000001dc     libc.a : _printfi.c.obj (.text._pconv_g)
                  00002f24    000001c4     ST7735.o (.text.tft180_set_region)
                  000030e8    00000192     libclang_rt.builtins.a : adddf3.S.obj (.text.adddf3_subdf3)
                  0000327a    00000002     startup_mspm0g350x_ticlang.o (.text.Default_Handler)
                  0000327c    00000164     ST7735.o (.text.tft180_clear)
                  000033e0    0000013c     libc.a : _printfi.c.obj (.text.fcvt)
                  0000351c    0000012c     uart.o (.text.UART_Process_Byte)
                  00003648    00000120     libc.a : _printfi.c.obj (.text._pconv_e)
                  00003768    0000010c     libclang_rt.builtins.a : divdf3.S.obj (.text.__divdf3)
                  00003874    000000fc     driverlib.a : dl_timer.o (.text.DL_Timer_initTimerMode)
                  00003970    000000e4     libclang_rt.builtins.a : muldf3.S.obj (.text.__muldf3)
                  00003a54    000000d8     libc.a : s_scalbn.c.obj (.text.scalbn)
                  00003b2c    000000d8     libclang_rt.builtins.a : addsf3.S.obj (.text)
                  00003c04    000000d0     empty.o (.text.Handle_UART_Packet)
                  00003cd4    000000c8     motor.o (.text.Motor_OnTimerInterrupt)
                  00003d9c    000000c0     ti_msp_dl_config.o (.text.SYSCFG_DL_GPIO_init)
                  00003e5c    000000a2     libclang_rt.builtins.a : udivmoddi4.S.obj (.text)
                  00003efe    00000002                            : aeabi_div0.c.obj (.text.__aeabi_idiv0)
                  00003f00    000000a0     libc.a : e_sqrtf.c.obj (.text.sqrtf)
                  00003fa0    0000009a            : memcpy16.S.obj (.text:memcpy)
                  0000403a    00000094     uart.o (.text.UART_Printf)
                  000040ce    00000002     libclang_rt.builtins.a : aeabi_div0.c.obj (.text.__aeabi_ldiv0)
                  000040d0    00000090     pid_control.o (.text.PID_Handle_SW3_ResetPress)
                  00004160    0000008c     libclang_rt.builtins.a : mulsf3.S.obj (.text.__mulsf3)
                  000041ec    00000088     motor.o (.text.Motor_Step)
                  00004274    00000082     libclang_rt.builtins.a : divsf3.S.obj (.text.__divsf3)
                  000042f6    00000002     libc.a : _lock.c.obj (.text._nop)
                  000042f8    0000007c     ti_msp_dl_config.o (.text.SYSCFG_DL_UART_1_init)
                  00004374    0000007c     libc.a : copy_decompress_lzss.c.obj (.text:decompress:lzss)
                  000043f0    00000078     motor.o (.text.Motor_Init)
                  00004468    00000074     libclang_rt.builtins.a : comparedf2.c.obj (.text.__gedf2)
                  000044dc    00000070     ti_msp_dl_config.o (.text.SYSCFG_DL_UART_0_init)
                  0000454c    0000006c     motor.o (.text.Motor_ChangeSubdivision)
                  000045b8    00000068     pid_control.o (.text.PID_Handle_SW3_ResetRelease)
                  00004620    00000068     libclang_rt.builtins.a : comparedf2.c.obj (.text.__ledf2)
                  00004688    00000066     libc.a : _printfi.c.obj (.text._mcpy)
                  000046ee    00000002     --HOLE-- [fill = 0]
                  000046f0    00000064     pid_control.o (.text.PID_Init)
                  00004754    00000064     ST7735.o (.text.tft180_printf)
                  000047b8    00000062     libclang_rt.builtins.a : aeabi_dcmp.S.obj (.text.__aeabi_dcmp)
                  0000481a    00000002     --HOLE-- [fill = 0]
                  0000481c    00000062                            : aeabi_fcmp.S.obj (.text.__aeabi_fcmp)
                  0000487e    00000062     libc.a : memset16.S.obj (.text:memset)
                  000048e0    00000060     ti_msp_dl_config.o (.text.SYSCFG_DL_initPower)
                  00004940    0000005c     libc.a : s_frexp.c.obj (.text.frexp)
                  0000499c    00000058            : _ltoa.c.obj (.text.__TI_ltoa)
                  000049f4    00000058            : _printfi.c.obj (.text._pconv_f)
                  00004a4c    00000056     libclang_rt.builtins.a : aeabi_idivmod.S.obj (.text.__aeabi_idivmod)
                  00004aa2    00000054     uart.o (.text.UART_SendPacket)
                  00004af6    00000052     libc.a : _printfi.c.obj (.text._ecpy)
                  00004b48    0000004c     pid_control.o (.text.PID_Handle_SW1_StateTransform)
                  00004b94    0000004c     ti_msp_dl_config.o (.text.SYSCFG_DL_ST7735_SPI_init)
                  00004be0    0000004a     libclang_rt.builtins.a : fixdfsi.S.obj (.text.__fixdfsi)
                  00004c2a    00000002     --HOLE-- [fill = 0]
                  00004c2c    00000048     driverlib.a : dl_uart.o (.text.DL_UART_init)
                  00004c74    00000044                 : dl_spi.o (.text.DL_SPI_init)
                  00004cb8    00000040     ti_msp_dl_config.o (.text.SYSCFG_DL_init)
                  00004cf8    00000040     libclang_rt.builtins.a : aeabi_uidivmod.S.obj (.text.__aeabi_uidivmod)
                  00004d38    00000040     libc.a : atoi.c.obj (.text.atoi)
                  00004d78    00000040            : vsnprintf.c.obj (.text.vsnprintf)
                  00004db8    0000003c     ti_msp_dl_config.o (.text.SYSCFG_DL_SYSCTL_init)
                  00004df4    0000003c     libclang_rt.builtins.a : floatsisf.S.obj (.text.__floatsisf)
                  00004e30    0000003c                            : comparesf2.S.obj (.text.__gtsf2)
                  00004e6c    0000003c     libc.a : autoinit.c.obj (.text:__TI_auto_init_nobinit_nopinit)
                  00004ea8    0000003a     libclang_rt.builtins.a : comparesf2.S.obj (.text.__eqsf2)
                  00004ee2    00000002     --HOLE-- [fill = 0]
                  00004ee4    0000003a                            : muldsi3.S.obj (.text.__muldsi3)
                  00004f1e    00000002     --HOLE-- [fill = 0]
                  00004f20    00000038     common.o (.text.Delay_ms)
                  00004f58    00000038     ti_msp_dl_config.o (.text.SYSCFG_DL_TIMER_1_init)
                  00004f90    00000038     ti_msp_dl_config.o (.text.SYSCFG_DL_TIMER_2_init)
                  00004fc8    00000038     uart.o (.text.UART_Interrupt_Init)
                  00005000    00000038     libclang_rt.builtins.a : fixsfsi.S.obj (.text.__fixsfsi)
                  00005038    00000038     libc.a : rand.c.obj (.text.rand)
                  00005070    00000034     motor.o (.text.TIMG6_IRQHandler)
                  000050a4    00000030     driverlib.a : dl_uart.o (.text.DL_UART_transmitDataBlocking)
                  000050d4    00000030     ti_msp_dl_config.o (.text.SYSCFG_DL_SYSTICK_init)
                  00005104    00000030     libc.a : _printfi.c.obj (.text._fcpy)
                  00005134    00000030            : vsnprintf.c.obj (.text._outs)
                  00005164    0000002c     pid_control.o (.text.PID_Handle_SW2_SwitchCalibIdx)
                  00005190    0000002c     motor.o (.text.TIMG12_IRQHandler)
                  000051bc    0000002c     libclang_rt.builtins.a : floatsidf.S.obj (.text.__floatsidf)
                  000051e8    00000028     motor.o (.text.Motor_SetDirection)
                  00005210    00000028     uart.o (.text.UART0_IRQHandler)
                  00005238    00000028     uart.o (.text.UART1_IRQHandler)
                  00005260    00000028     libc.a : boot_cortex_m.c.obj (.text:_c_int00_noargs)
                  00005288    00000024     libclang_rt.builtins.a : muldi3.S.obj (.text.__muldi3)
                  000052ac    00000022     libc.a : memccpy.c.obj (.text.memccpy)
                  000052ce    00000002     --HOLE-- [fill = 0]
                  000052d0    0000001e     libclang_rt.builtins.a : ashldi3.S.obj (.text.__ashldi3)
                  000052ee    00000002     --HOLE-- [fill = 0]
                  000052f0    0000001c     driverlib.a : dl_timer.o (.text.DL_Timer_setClockConfig)
                  0000530c    0000001c     LcdUI.o (.text.lcd_ui_init)
                  00005328    00000018     pid_control.o (.text.PID_Handle_SW4_Stop)
                  00005340    00000018     pid_control.o (.text.PID_SaveCalibrationPoint)
                  00005358    00000018     libc.a : vsnprintf.c.obj (.text._outc)
                  00005370    00000016            : copy_zero_init.c.obj (.text:decompress:ZI:__TI_zero_init_nomemset)
                  00005386    00000002     --HOLE-- [fill = 0]
                  00005388    00000014     motor.o (.text.Motor_IsRunning)
                  0000539c    00000014     motor.o (.text.Motor_Timer_Init)
                  000053b0    00000014     common.o (.text.SysTick_Handler)
                  000053c4    00000014     libclang_rt.builtins.a : aeabi_uldivmod.S.obj (.text.__aeabi_uldivmod)
                  000053d8    00000014     libc.a : _printfi.c.obj (.text.strchr)
                  000053ec    00000014     ST7735.o (.text.tft180_set_color)
                  00005400    00000012     driverlib.a : dl_spi.o (.text.DL_SPI_setClockConfig)
                  00005412    00000012                 : dl_uart.o (.text.DL_UART_setClockConfig)
                  00005424    00000012     libc.a : copy_decompress_none.c.obj (.text:decompress:none)
                  00005436    00000010            : wcslen.c.obj (.text.wcslen)
                  00005446    00000002     --HOLE-- [fill = 0]
                  00005448    0000000e     libclang_rt.builtins.a : aeabi_memset.S.obj (.text.__aeabi_memset)
                  00005456    0000000e     libc.a : _printfi.c.obj (.text.strlen)
                  00005464    0000000a     driverlib.a : dl_common.o (.text.DL_Common_delayCycles)
                  0000546e    0000000a     libc.a : _printfi.c.obj (.text.OUTLINED_FUNCTION_0)
                  00005478    00000010     libclang_rt.builtins.a : adddf3.S.obj (.tramp.__aeabi_dsub.1)
                  00005488    0000000a     libc.a : _printfi.c.obj (.text.OUTLINED_FUNCTION_1)
                  00005492    00000002     --HOLE-- [fill = 0]
                  00005494    00000008            : aeabi_portable.c.obj (.text.__aeabi_errno_addr)
                  0000549c    00000008     libclang_rt.builtins.a : aeabi_memcpy.S.obj (.text.__aeabi_memcpy)
                  000054a4    00000006     libc.a : exit.c.obj (.text:abort)
                  000054aa    00000004     libsysbm.a : hostexit.c.obj (.text.HOSTexit)
                  000054ae    00000004     startup_mspm0g350x_ticlang.o (.text.Reset_Handler)
                  000054b2    00000004     libc.a : pre_init.c.obj (.text._system_pre_init)
                  000054b6    00000002     --HOLE-- [fill = 0]

.cinit     0    00006070    000000c0     
                  00006070    0000009c     (.cinit..data.load) [load image, compression = lzss]
                  0000610c    0000000c     (__TI_handler_table)
                  00006118    00000008     (.cinit..bss.load) [load image, compression = zero_init]
                  00006120    00000010     (__TI_cinit_table)

.rodata    0    000054c0    00000bb0     
                  000054c0    000005f0     font.o (.rodata.ascii_font_8x16)
                  00005ab0    00000228     font.o (.rodata.ascii_font_6x8)
                  00005cd8    00000008     empty.o (.rodata.str1.11822412164550770238.1)
                  00005ce0    00000101     libc.a : aeabi_ctype.S.obj (.rodata:__aeabi_ctype_table_)
                  00005de1    00000003     ti_msp_dl_config.o (.rodata.gTIMER_1ClockConfig)
                  00005de4    0000001c     empty.o (.rodata..L__const.main.state_str)
                  00005e00    0000001b     empty.o (.rodata.str1.9517790425240694019.1)
                  00005e1b    00000001     --HOLE-- [fill = 0]
                  00005e1c    00000014     ti_msp_dl_config.o (.rodata.gTIMER_1TimerConfig)
                  00005e30    00000014     ti_msp_dl_config.o (.rodata.gTIMER_2TimerConfig)
                  00005e44    00000013     empty.o (.rodata.str1.17676052816137622666.1)
                  00005e57    00000013     empty.o (.rodata.str1.5100843677217179155.1)
                  00005e6a    00000013     empty.o (.rodata.str1.9488353182382806522.1)
                  00005e7d    00000012     empty.o (.rodata.str1.10059295903439925133.1)
                  00005e8f    00000012     empty.o (.rodata.str1.101204432782223354.1)
                  00005ea1    00000012     empty.o (.rodata.str1.1253969330244694382.1)
                  00005eb3    00000012     empty.o (.rodata.str1.15486159998237592746.1)
                  00005ec5    00000012     empty.o (.rodata.str1.17102900359786703537.1)
                  00005ed7    00000012     empty.o (.rodata.str1.18230774644621384456.1)
                  00005ee9    00000012     empty.o (.rodata.str1.6969777895189110550.1)
                  00005efb    00000011     libc.a : _printfi.c.obj (.rodata.str1.10348868589481759720.1)
                  00005f0c    00000011     empty.o (.rodata.str1.11898133897667081452.1)
                  00005f1d    00000011     empty.o (.rodata.str1.14685083708502177989.1)
                  00005f2e    00000011     empty.o (.rodata.str1.150872071346279890.1)
                  00005f3f    00000011     libc.a : _printfi.c.obj (.rodata.str1.15363888844622738466.1)
                  00005f50    00000011     empty.o (.rodata.str1.15706828512682300538.1)
                  00005f61    00000011     empty.o (.rodata.str1.16704889451495720520.1)
                  00005f72    00000011     empty.o (.rodata.str1.17669528882079347314.1)
                  00005f83    00000011     empty.o (.rodata.str1.2196762768037919588.1)
                  00005f94    00000011     empty.o (.rodata.str1.254342170260855183.1)
                  00005fa5    00000011     empty.o (.rodata.str1.7401042497206923953.1)
                  00005fb6    00000010     empty.o (.rodata.str1.1204102649501173409.1)
                  00005fc6    00000010     empty.o (.rodata.str1.15967779794922834835.1)
                  00005fd6    00000010     empty.o (.rodata.str1.7048729596307760267.1)
                  00005fe6    00000010     empty.o (.rodata.str1.9439672824749741859.1)
                  00005ff6    0000000e     empty.o (.rodata.str1.15930989295766594416.1)
                  00006004    0000000a     ti_msp_dl_config.o (.rodata.gST7735_SPI_config)
                  0000600e    0000000a     ti_msp_dl_config.o (.rodata.gUART_0Config)
                  00006018    0000000a     ti_msp_dl_config.o (.rodata.gUART_1Config)
                  00006022    0000000a     pid_control.o (.rodata.str1.10786741202729133532.1)
                  0000602c    00000009     empty.o (.rodata.str1.7079713434352825882.1)
                  00006035    00000008     empty.o (.rodata.str1.15170238581331914936.1)
                  0000603d    00000008     empty.o (.rodata.str1.17686411042290499047.1)
                  00006045    00000008     empty.o (.rodata.str1.4000995719088696555.1)
                  0000604d    00000008     empty.o (.rodata.str1.5792233746214848027.1)
                  00006055    00000008     empty.o (.rodata.str1.7386103758396746866.1)
                  0000605d    00000008     empty.o (.rodata.str1.9410084661655729462.1)
                  00006065    00000003     ti_msp_dl_config.o (.rodata.gTIMER_2ClockConfig)
                  00006068    00000002     ti_msp_dl_config.o (.rodata.gST7735_SPI_clockConfig)
                  0000606a    00000002     ti_msp_dl_config.o (.rodata.gUART_0ClockConfig)
                  0000606c    00000002     ti_msp_dl_config.o (.rodata.gUART_1ClockConfig)
                  0000606e    00000002     --HOLE-- [fill = 0]

.init_array 
*          0    00000000    00000000     UNINITIALIZED

.binit     0    00000000    00000000     

.bss       0    20200000    00000195     UNINITIALIZED
                  20200000    000000a0     (.common:gTIMER_2Backup)
                  202000a0    00000078     (.common:g_ctrl)
                  20200118    00000028     pid_control.o (.bss.backup_sub_targets)
                  20200140    00000028     (.common:gST7735_SPIBackup)
                  20200168    00000008     (.common:g_uart0_packet)
                  20200170    00000008     (.common:g_uart1_packet)
                  20200178    00000007     uart.o (.bss.g_uart0_temp_buf)
                  2020017f    00000007     uart.o (.bss.g_uart1_temp_buf)
                  20200186    00000001     pid_control.o (.bss.backup_sub_target_idx)
                  20200187    00000001     pid_control.o (.bss.backup_sub_target_total)
                  20200188    00000004     pid_control.o (.bss.backup_final_target.0)
                  2020018c    00000004     (.common:g_manual_step_x)
                  20200190    00000004     (.common:g_manual_step_y)
                  20200194    00000001     pid_control.o (.bss.backup_use_waypoints)

.data      0    20200198    00000149     UNINITIALIZED
                  20200198    000000c8     motor.o (.data.motors)
                  20200260    00000030     pid_control.o (.data.g_calib_step_points)
                  20200290    00000018     pid_control.o (.data.g_target_list)
                  202002a8    00000004     libc.a : aeabi_portable.c.obj (.data.__aeabi_errno)
                  202002ac    00000004            : _lock.c.obj (.data._lock)
                  202002b0    00000004            : _lock.c.obj (.data._unlock)
                  202002b4    00000004     common.o (.data.delay_times)
                  202002b8    00000004     pid_control.o (.data.g_quota_total_x)
                  202002bc    00000004     pid_control.o (.data.g_quota_total_y)
                  202002c0    00000004     pid_control.o (.data.g_step_count_x)
                  202002c4    00000004     pid_control.o (.data.g_step_count_y)
                  202002c8    00000004     empty.o (.data.main.display_cnt)
                  202002cc    00000004     libc.a : rand.c.obj (.data.next)
                  202002d0    00000004     empty.o (.data.uart_rx_timeout)
                  202002d4    00000002     ST7735.o (.data.tft180_bgcolor)
                  202002d6    00000002     ST7735.o (.data.tft180_pencolor)
                  202002d8    00000001     pid_control.o (.data.g_calib_select_idx)
                  202002d9    00000001     pid_control.o (.data.g_quota_limit_enable)
                  202002da    00000001     uart.o (.data.g_uart0_index)
                  202002db    00000001     uart.o (.data.g_uart0_rx_complete)
                  202002dc    00000001     uart.o (.data.g_uart1_index)
                  202002dd    00000001     uart.o (.data.g_uart1_rx_complete)
                  202002de    00000001     pid_control.o (.data.g_waypoint_count)
                  202002df    00000001     empty.o (.data.main.reset_btn_pressed)
                  202002e0    00000001     ST7735.o (.data.tft180_display_font)

.stack     0    20207e00    00000200     UNINITIALIZED
                  20207e00    00000004     libc.a : boot_cortex_m.c.obj (.stack)
                  20207e04    000001fc     --HOLE--

__llvm_prf_cnts 
*          0    20200000    00000000     UNINITIALIZED

__llvm_prf_bits 
*          0    20200000    00000000     UNINITIALIZED

MODULE SUMMARY

       Module                         code    ro data   rw data
       ------                         ----    -------   -------
    .\
       pid_control.o                  2944    10        258    
       empty.o                        1720    534       17     
       ti_msp_dl_config.o             884     82        200    
       motor.o                        740     0         200    
       uart.o                         668     0         34     
       startup_mspm0g350x_ticlang.o   6       192       0      
    +--+------------------------------+-------+---------+---------+
       Total:                         6962    818       709    
                                                               
    .\Drivers\
       ST7735.o                       5332    0         5      
       font.o                         0       2072      0      
       common.o                       76      0         4      
       LcdUI.o                        28      0         0      
    +--+------------------------------+-------+---------+---------+
       Total:                         5436    2072      9      
                                                               
    C:/TI/mspm0_sdk_2_10_00_04/source/ti/driverlib/lib/ticlang/m0p/mspm0g1x0x_g3x0x/driverlib.a
       dl_timer.o                     280     0         0      
       dl_uart.o                      138     0         0      
       dl_spi.o                       86      0         0      
       dl_common.o                    10      0         0      
    +--+------------------------------+-------+---------+---------+
       Total:                         514     0         0      
                                                               
    D:\ti\ccs2050\ccs\tools\compiler\ti-cgt-armllvm_4.0.4.LTS\lib\armv6m-ti-none-eabi/c/libc.a
       _printfi.c.obj                 4510    34        0      
       aeabi_ctype.S.obj              0       257       0      
       s_scalbn.c.obj                 216     0         0      
       e_sqrtf.c.obj                  160     0         0      
       memcpy16.S.obj                 154     0         0      
       vsnprintf.c.obj                136     0         0      
       copy_decompress_lzss.c.obj     124     0         0      
       memset16.S.obj                 98      0         0      
       s_frexp.c.obj                  92      0         0      
       _ltoa.c.obj                    88      0         0      
       atoi.c.obj                     64      0         0      
       autoinit.c.obj                 60      0         0      
       rand.c.obj                     56      0         4      
       boot_cortex_m.c.obj            40      0         0      
       memccpy.c.obj                  34      0         0      
       copy_zero_init.c.obj           22      0         0      
       copy_decompress_none.c.obj     18      0         0      
       wcslen.c.obj                   16      0         0      
       aeabi_portable.c.obj           8       0         4      
       _lock.c.obj                    2       0         8      
       exit.c.obj                     6       0         0      
       pre_init.c.obj                 4       0         0      
    +--+------------------------------+-------+---------+---------+
       Total:                         5908    291       16     
                                                               
    D:\ti\ccs2050\ccs\tools\compiler\ti-cgt-armllvm_4.0.4.LTS\lib\armv6m-ti-none-eabi/c/libsysbm.a
       hostexit.c.obj                 4       0         0      
    +--+------------------------------+-------+---------+---------+
       Total:                         4       0         0      
                                                               
    D:\ti\ccs2050\ccs\tools\compiler\ti-cgt-armllvm_4.0.4.LTS\lib\armv6m-ti-none-eabi/libclang_rt.builtins.a
       adddf3.S.obj                   418     0         0      
       divdf3.S.obj                   268     0         0      
       muldf3.S.obj                   228     0         0      
       comparedf2.c.obj               220     0         0      
       addsf3.S.obj                   216     0         0      
       udivmoddi4.S.obj               162     0         0      
       mulsf3.S.obj                   140     0         0      
       divsf3.S.obj                   130     0         0      
       comparesf2.S.obj               118     0         0      
       aeabi_dcmp.S.obj               98      0         0      
       aeabi_fcmp.S.obj               98      0         0      
       aeabi_idivmod.S.obj            86      0         0      
       fixdfsi.S.obj                  74      0         0      
       aeabi_uidivmod.S.obj           64      0         0      
       floatsisf.S.obj                60      0         0      
       muldsi3.S.obj                  58      0         0      
       fixsfsi.S.obj                  56      0         0      
       floatsidf.S.obj                44      0         0      
       muldi3.S.obj                   36      0         0      
       ashldi3.S.obj                  30      0         0      
       aeabi_uldivmod.S.obj           20      0         0      
       aeabi_memset.S.obj             14      0         0      
       aeabi_memcpy.S.obj             8       0         0      
       aeabi_div0.c.obj               4       0         0      
    +--+------------------------------+-------+---------+---------+
       Total:                         2650    0         0      
                                                               
       Stack:                         0       0         512    
       Linker Generated:              0       192       0      
    +--+------------------------------+-------+---------+---------+
       Grand Total:                   21474   3373      1246   


LINKER GENERATED COPY TABLES

__TI_cinit_table @ 00006120 records: 2, size/record: 8, table size: 16
	.data: load addr=00006070, load size=0000009c bytes, run addr=20200198, run size=00000149 bytes, compression=lzss
	.bss: load addr=00006118, load size=00000008 bytes, run addr=20200000, run size=00000195 bytes, compression=zero_init


LINKER GENERATED HANDLER TABLE

__TI_handler_table @ 0000610c records: 3, size/record: 4, table size: 12
	index: 0, handler: __TI_decompress_lzss
	index: 1, handler: __TI_decompress_none
	index: 2, handler: __TI_zero_init


FAR CALL TRAMPOLINES

callee name               trampoline name
   callee addr  tramp addr   call addr  call info
--------------  -----------  ---------  ----------------
__aeabi_dsub              $Tramp$TT$L$PI$$__aeabi_dsub
   000030e9     00005478     00005476   libc.a : _printfi.c.obj (.text.OUTLINED_FUNCTION_0)

[1 trampolines]
[1 trampoline calls]


GLOBAL SYMBOLS: SORTED ALPHABETICALLY BY Name 

address   name                          
-------   ----                          
0000327b  ADC0_IRQHandler               
0000327b  ADC1_IRQHandler               
0000327b  AES_IRQHandler                
000054aa  C$$EXIT                       
0000327b  CANFD0_IRQHandler             
0000327b  DAC0_IRQHandler               
00005465  DL_Common_delayCycles         
00004c75  DL_SPI_init                   
00005401  DL_SPI_setClockConfig         
00003875  DL_Timer_initTimerMode        
000052f1  DL_Timer_setClockConfig       
00004c2d  DL_UART_init                  
00005413  DL_UART_setClockConfig        
000050a5  DL_UART_transmitDataBlocking  
0000327b  DMA_IRQHandler                
0000327b  Default_Handler               
00004f21  Delay_ms                      
0000327b  GROUP0_IRQHandler             
0000327b  GROUP1_IRQHandler             
000054ab  HOSTexit                      
0000327b  HardFault_Handler             
0000327b  I2C0_IRQHandler               
0000327b  I2C1_IRQHandler               
0000454d  Motor_ChangeSubdivision       
000043f1  Motor_Init                    
00005389  Motor_IsRunning               
00003cd5  Motor_OnTimerInterrupt        
000051e9  Motor_SetDirection            
000041ed  Motor_Step                    
0000539d  Motor_Timer_Init              
0000327b  NMI_Handler                   
00004b49  PID_Handle_SW1_StateTransform 
00005165  PID_Handle_SW2_SwitchCalibIdx 
000040d1  PID_Handle_SW3_ResetPress     
000045b9  PID_Handle_SW3_ResetRelease   
00005329  PID_Handle_SW4_Stop           
000046f1  PID_Init                      
00005341  PID_SaveCalibrationPoint      
000026d9  PID_SetTargetIndex            
00001ee5  PID_Update                    
0000327b  PendSV_Handler                
0000327b  RTC_IRQHandler                
000054af  Reset_Handler                 
0000327b  SPI0_IRQHandler               
0000327b  SPI1_IRQHandler               
0000327b  SVC_Handler                   
00003d9d  SYSCFG_DL_GPIO_init           
00004b95  SYSCFG_DL_ST7735_SPI_init     
00004db9  SYSCFG_DL_SYSCTL_init         
000050d5  SYSCFG_DL_SYSTICK_init        
00004f59  SYSCFG_DL_TIMER_1_init        
00004f91  SYSCFG_DL_TIMER_2_init        
000044dd  SYSCFG_DL_UART_0_init         
000042f9  SYSCFG_DL_UART_1_init         
00004cb9  SYSCFG_DL_init                
000048e1  SYSCFG_DL_initPower           
000053b1  SysTick_Handler               
0000327b  TIMA0_IRQHandler              
0000327b  TIMA1_IRQHandler              
0000327b  TIMG0_IRQHandler              
00005191  TIMG12_IRQHandler             
00005071  TIMG6_IRQHandler              
0000327b  TIMG7_IRQHandler              
0000327b  TIMG8_IRQHandler              
00005211  UART0_IRQHandler              
00005239  UART1_IRQHandler              
0000327b  UART2_IRQHandler              
0000327b  UART3_IRQHandler              
00004fc9  UART_Interrupt_Init           
0000403b  UART_Printf                   
0000351d  UART_Process_Byte             
00004aa3  UART_SendPacket               
20208000  __STACK_END                   
00000200  __STACK_SIZE                  
00000000  __TI_ATRegion0_region_sz      
00000000  __TI_ATRegion0_src_addr       
00000000  __TI_ATRegion0_trg_addr       
00000000  __TI_ATRegion1_region_sz      
00000000  __TI_ATRegion1_src_addr       
00000000  __TI_ATRegion1_trg_addr       
00000000  __TI_ATRegion2_region_sz      
00000000  __TI_ATRegion2_src_addr       
00000000  __TI_ATRegion2_trg_addr       
00006120  __TI_CINIT_Base               
00006130  __TI_CINIT_Limit              
00006130  __TI_CINIT_Warm               
0000610c  __TI_Handler_Table_Base       
00006118  __TI_Handler_Table_Limit      
00004e6d  __TI_auto_init_nobinit_nopinit
00004375  __TI_decompress_lzss          
00005425  __TI_decompress_none          
0000499d  __TI_ltoa                     
ffffffff  __TI_pprof_out_hndl           
00000f2d  __TI_printfi                  
ffffffff  __TI_prof_data_size           
ffffffff  __TI_prof_data_start          
00000000  __TI_static_base__            
00005371  __TI_zero_init_nomemset       
000030f3  __adddf3                      
00003b37  __addsf3                      
00005ce0  __aeabi_ctype_table_          
00005ce0  __aeabi_ctype_table_C         
00004be1  __aeabi_d2iz                  
000030f3  __aeabi_dadd                  
000047b9  __aeabi_dcmpeq                
000047f5  __aeabi_dcmpge                
00004809  __aeabi_dcmpgt                
000047e1  __aeabi_dcmple                
000047cd  __aeabi_dcmplt                
00003769  __aeabi_ddiv                  
00003971  __aeabi_dmul                  
000030e9  __aeabi_dsub                  
202002a8  __aeabi_errno                 
00005495  __aeabi_errno_addr            
00005001  __aeabi_f2iz                  
00003b37  __aeabi_fadd                  
0000481d  __aeabi_fcmpeq                
00004859  __aeabi_fcmpge                
0000486d  __aeabi_fcmpgt                
00004845  __aeabi_fcmple                
00004831  __aeabi_fcmplt                
00004275  __aeabi_fdiv                  
00004161  __aeabi_fmul                  
00003b2d  __aeabi_fsub                  
000051bd  __aeabi_i2d                   
00004df5  __aeabi_i2f                   
00004a4d  __aeabi_idiv                  
00003eff  __aeabi_idiv0                 
00004a4d  __aeabi_idivmod               
000040cf  __aeabi_ldiv0                 
000052d1  __aeabi_llsl                  
00005289  __aeabi_lmul                  
0000549d  __aeabi_memcpy                
0000549d  __aeabi_memcpy4               
0000549d  __aeabi_memcpy8               
00005449  __aeabi_memset                
00005449  __aeabi_memset4               
00005449  __aeabi_memset8               
00004cf9  __aeabi_uidiv                 
00004cf9  __aeabi_uidivmod              
000053c5  __aeabi_uldivmod              
000052d1  __ashldi3                     
ffffffff  __binit__                     
00004621  __cmpdf2                      
00004ea9  __cmpsf2                      
00003769  __divdf3                      
00004275  __divsf3                      
00004621  __eqdf2                       
00004ea9  __eqsf2                       
00004be1  __fixdfsi                     
00005001  __fixsfsi                     
000051bd  __floatsidf                   
00004df5  __floatsisf                   
00004469  __gedf2                       
00004e31  __gesf2                       
00004469  __gtdf2                       
00004e31  __gtsf2                       
00004621  __ledf2                       
00004ea9  __lesf2                       
00004621  __ltdf2                       
00004ea9  __ltsf2                       
UNDEFED   __mpu_init                    
00003971  __muldf3                      
00005289  __muldi3                      
00004ee5  __muldsi3                     
00004161  __mulsf3                      
00004621  __nedf2                       
00004ea9  __nesf2                       
20207e00  __stack                       
20200000  __start___llvm_prf_bits       
20200000  __start___llvm_prf_cnts       
20200000  __stop___llvm_prf_bits        
20200000  __stop___llvm_prf_cnts        
000030e9  __subdf3                      
00003b2d  __subsf3                      
00003e5d  __udivmoddi4                  
00005261  _c_int00_noargs               
202002ac  _lock                         
000042f7  _nop                          
UNDEFED   _system_post_cinit            
000054b3  _system_pre_init              
202002b0  _unlock                       
000054a5  abort                         
00005ab0  ascii_font_6x8                
000054c0  ascii_font_8x16               
00004d39  atoi                          
ffffffff  binit                         
202002b4  delay_times                   
00004941  frexp                         
00004941  frexpl                        
20200140  gST7735_SPIBackup             
20200000  gTIMER_2Backup                
202002d8  g_calib_select_idx            
20200260  g_calib_step_points           
202000a0  g_ctrl                        
2020018c  g_manual_step_x               
20200190  g_manual_step_y               
202002d9  g_quota_limit_enable          
202002b8  g_quota_total_x               
202002bc  g_quota_total_y               
202002c0  g_step_count_x                
202002c4  g_step_count_y                
20200290  g_target_list                 
20200168  g_uart0_packet                
202002db  g_uart0_rx_complete           
20200170  g_uart1_packet                
202002dd  g_uart1_rx_complete           
202002de  g_waypoint_count              
00000000  interruptVectors              
0000530d  lcd_ui_init                   
00003a55  ldexp                         
00003a55  ldexpl                        
000018fd  main                          
000052ad  memccpy                       
00003fa1  memcpy                        
0000487f  memset                        
00005039  rand                          
00003a55  scalbn                        
00003a55  scalbnl                       
00003f01  sqrtf                         
0000327d  tft180_clear                  
202002e0  tft180_display_font           
000000c1  tft180_init                   
00004755  tft180_printf                 
000053ed  tft180_set_color              
00002411  tft180_show_char              
202002d0  uart_rx_timeout               
00004d79  vsnprintf                     
00005437  wcslen                        


GLOBAL SYMBOLS: SORTED BY Symbol Address 

address   name                          
-------   ----                          
00000000  __TI_ATRegion0_region_sz      
00000000  __TI_ATRegion0_src_addr       
00000000  __TI_ATRegion0_trg_addr       
00000000  __TI_ATRegion1_region_sz      
00000000  __TI_ATRegion1_src_addr       
00000000  __TI_ATRegion1_trg_addr       
00000000  __TI_ATRegion2_region_sz      
00000000  __TI_ATRegion2_src_addr       
00000000  __TI_ATRegion2_trg_addr       
00000000  __TI_static_base__            
00000000  interruptVectors              
000000c1  tft180_init                   
00000200  __STACK_SIZE                  
00000f2d  __TI_printfi                  
000018fd  main                          
00001ee5  PID_Update                    
00002411  tft180_show_char              
000026d9  PID_SetTargetIndex            
000030e9  __aeabi_dsub                  
000030e9  __subdf3                      
000030f3  __adddf3                      
000030f3  __aeabi_dadd                  
0000327b  ADC0_IRQHandler               
0000327b  ADC1_IRQHandler               
0000327b  AES_IRQHandler                
0000327b  CANFD0_IRQHandler             
0000327b  DAC0_IRQHandler               
0000327b  DMA_IRQHandler                
0000327b  Default_Handler               
0000327b  GROUP0_IRQHandler             
0000327b  GROUP1_IRQHandler             
0000327b  HardFault_Handler             
0000327b  I2C0_IRQHandler               
0000327b  I2C1_IRQHandler               
0000327b  NMI_Handler                   
0000327b  PendSV_Handler                
0000327b  RTC_IRQHandler                
0000327b  SPI0_IRQHandler               
0000327b  SPI1_IRQHandler               
0000327b  SVC_Handler                   
0000327b  TIMA0_IRQHandler              
0000327b  TIMA1_IRQHandler              
0000327b  TIMG0_IRQHandler              
0000327b  TIMG7_IRQHandler              
0000327b  TIMG8_IRQHandler              
0000327b  UART2_IRQHandler              
0000327b  UART3_IRQHandler              
0000327d  tft180_clear                  
0000351d  UART_Process_Byte             
00003769  __aeabi_ddiv                  
00003769  __divdf3                      
00003875  DL_Timer_initTimerMode        
00003971  __aeabi_dmul                  
00003971  __muldf3                      
00003a55  ldexp                         
00003a55  ldexpl                        
00003a55  scalbn                        
00003a55  scalbnl                       
00003b2d  __aeabi_fsub                  
00003b2d  __subsf3                      
00003b37  __addsf3                      
00003b37  __aeabi_fadd                  
00003cd5  Motor_OnTimerInterrupt        
00003d9d  SYSCFG_DL_GPIO_init           
00003e5d  __udivmoddi4                  
00003eff  __aeabi_idiv0                 
00003f01  sqrtf                         
00003fa1  memcpy                        
0000403b  UART_Printf                   
000040cf  __aeabi_ldiv0                 
000040d1  PID_Handle_SW3_ResetPress     
00004161  __aeabi_fmul                  
00004161  __mulsf3                      
000041ed  Motor_Step                    
00004275  __aeabi_fdiv                  
00004275  __divsf3                      
000042f7  _nop                          
000042f9  SYSCFG_DL_UART_1_init         
00004375  __TI_decompress_lzss          
000043f1  Motor_Init                    
00004469  __gedf2                       
00004469  __gtdf2                       
000044dd  SYSCFG_DL_UART_0_init         
0000454d  Motor_ChangeSubdivision       
000045b9  PID_Handle_SW3_ResetRelease   
00004621  __cmpdf2                      
00004621  __eqdf2                       
00004621  __ledf2                       
00004621  __ltdf2                       
00004621  __nedf2                       
000046f1  PID_Init                      
00004755  tft180_printf                 
000047b9  __aeabi_dcmpeq                
000047cd  __aeabi_dcmplt                
000047e1  __aeabi_dcmple                
000047f5  __aeabi_dcmpge                
00004809  __aeabi_dcmpgt                
0000481d  __aeabi_fcmpeq                
00004831  __aeabi_fcmplt                
00004845  __aeabi_fcmple                
00004859  __aeabi_fcmpge                
0000486d  __aeabi_fcmpgt                
0000487f  memset                        
000048e1  SYSCFG_DL_initPower           
00004941  frexp                         
00004941  frexpl                        
0000499d  __TI_ltoa                     
00004a4d  __aeabi_idiv                  
00004a4d  __aeabi_idivmod               
00004aa3  UART_SendPacket               
00004b49  PID_Handle_SW1_StateTransform 
00004b95  SYSCFG_DL_ST7735_SPI_init     
00004be1  __aeabi_d2iz                  
00004be1  __fixdfsi                     
00004c2d  DL_UART_init                  
00004c75  DL_SPI_init                   
00004cb9  SYSCFG_DL_init                
00004cf9  __aeabi_uidiv                 
00004cf9  __aeabi_uidivmod              
00004d39  atoi                          
00004d79  vsnprintf                     
00004db9  SYSCFG_DL_SYSCTL_init         
00004df5  __aeabi_i2f                   
00004df5  __floatsisf                   
00004e31  __gesf2                       
00004e31  __gtsf2                       
00004e6d  __TI_auto_init_nobinit_nopinit
00004ea9  __cmpsf2                      
00004ea9  __eqsf2                       
00004ea9  __lesf2                       
00004ea9  __ltsf2                       
00004ea9  __nesf2                       
00004ee5  __muldsi3                     
00004f21  Delay_ms                      
00004f59  SYSCFG_DL_TIMER_1_init        
00004f91  SYSCFG_DL_TIMER_2_init        
00004fc9  UART_Interrupt_Init           
00005001  __aeabi_f2iz                  
00005001  __fixsfsi                     
00005039  rand                          
00005071  TIMG6_IRQHandler              
000050a5  DL_UART_transmitDataBlocking  
000050d5  SYSCFG_DL_SYSTICK_init        
00005165  PID_Handle_SW2_SwitchCalibIdx 
00005191  TIMG12_IRQHandler             
000051bd  __aeabi_i2d                   
000051bd  __floatsidf                   
000051e9  Motor_SetDirection            
00005211  UART0_IRQHandler              
00005239  UART1_IRQHandler              
00005261  _c_int00_noargs               
00005289  __aeabi_lmul                  
00005289  __muldi3                      
000052ad  memccpy                       
000052d1  __aeabi_llsl                  
000052d1  __ashldi3                     
000052f1  DL_Timer_setClockConfig       
0000530d  lcd_ui_init                   
00005329  PID_Handle_SW4_Stop           
00005341  PID_SaveCalibrationPoint      
00005371  __TI_zero_init_nomemset       
00005389  Motor_IsRunning               
0000539d  Motor_Timer_Init              
000053b1  SysTick_Handler               
000053c5  __aeabi_uldivmod              
000053ed  tft180_set_color              
00005401  DL_SPI_setClockConfig         
00005413  DL_UART_setClockConfig        
00005425  __TI_decompress_none          
00005437  wcslen                        
00005449  __aeabi_memset                
00005449  __aeabi_memset4               
00005449  __aeabi_memset8               
00005465  DL_Common_delayCycles         
00005495  __aeabi_errno_addr            
0000549d  __aeabi_memcpy                
0000549d  __aeabi_memcpy4               
0000549d  __aeabi_memcpy8               
000054a5  abort                         
000054aa  C$$EXIT                       
000054ab  HOSTexit                      
000054af  Reset_Handler                 
000054b3  _system_pre_init              
000054c0  ascii_font_8x16               
00005ab0  ascii_font_6x8                
00005ce0  __aeabi_ctype_table_          
00005ce0  __aeabi_ctype_table_C         
0000610c  __TI_Handler_Table_Base       
00006118  __TI_Handler_Table_Limit      
00006120  __TI_CINIT_Base               
00006130  __TI_CINIT_Limit              
00006130  __TI_CINIT_Warm               
20200000  __start___llvm_prf_bits       
20200000  __start___llvm_prf_cnts       
20200000  __stop___llvm_prf_bits        
20200000  __stop___llvm_prf_cnts        
20200000  gTIMER_2Backup                
202000a0  g_ctrl                        
20200140  gST7735_SPIBackup             
20200168  g_uart0_packet                
20200170  g_uart1_packet                
2020018c  g_manual_step_x               
20200190  g_manual_step_y               
20200260  g_calib_step_points           
20200290  g_target_list                 
202002a8  __aeabi_errno                 
202002ac  _lock                         
202002b0  _unlock                       
202002b4  delay_times                   
202002b8  g_quota_total_x               
202002bc  g_quota_total_y               
202002c0  g_step_count_x                
202002c4  g_step_count_y                
202002d0  uart_rx_timeout               
202002d8  g_calib_select_idx            
202002d9  g_quota_limit_enable          
202002db  g_uart0_rx_complete           
202002dd  g_uart1_rx_complete           
202002de  g_waypoint_count              
202002e0  tft180_display_font           
20207e00  __stack                       
20208000  __STACK_END                   
ffffffff  __TI_pprof_out_hndl           
ffffffff  __TI_prof_data_size           
ffffffff  __TI_prof_data_start          
ffffffff  __binit__                     
ffffffff  binit                         
UNDEFED   __mpu_init                    
UNDEFED   _system_post_cinit            

[229 symbols]
